target datalayout = "e-m:e-p270:32:32-p271:32:32-p272:64:64-i64:64-i128:128-f80:128-n8:16:32:64-S128"
target triple = "x86_64-pc-linux-gnu"

@stderr = external global ptr, align 8
@.str.8 = private unnamed_addr constant [36 x i8] c"Output buffer is not large enough.\0A\00", align 1
@.str.9 = private unnamed_addr constant [34 x i8] c"Call to PKCS5_PBKDF2_HMAC failed\0A\00", align 1
@.str.10 = private unnamed_addr constant [51 x i8] c"Resulting key material does not match expectation\0A\00", align 1
@.str.11 = private unnamed_addr constant [15 x i8] c"Expected:\0A    \00", align 1
@.str.12 = private unnamed_addr constant [14 x i8] c"\0AActual:\0A    \00", align 1
@.str.13 = private unnamed_addr constant [2 x i8] c"\0A\00", align 1
@.str.14 = private unnamed_addr constant [5 x i8] c"%02x\00", align 1

; Function Attrs: mustprogress nounwind uwtable
define internal void @_ZL12PrintDataHexPKvm(ptr noundef %0, i64 noundef %1) #7 {
  %3 = alloca ptr, align 8
  %4 = alloca i64, align 8
  %5 = alloca i64, align 8
  store ptr %0, ptr %3, align 8, !tbaa !16
  store i64 %1, ptr %4, align 8, !tbaa !11
  call void @llvm.lifetime.start.p0(i64 8, ptr %5) #9
  store i64 0, ptr %5, align 8, !tbaa !11
  br label %6

6:                                                ; preds = %19, %2
  %7 = load i64, ptr %5, align 8, !tbaa !11
  %8 = load i64, ptr %4, align 8, !tbaa !11
  %9 = icmp ult i64 %7, %8
  br i1 %9, label %11, label %10

10:                                               ; preds = %6
  call void @llvm.lifetime.end.p0(i64 8, ptr %5) #9
  br label %22

11:                                               ; preds = %6
  %12 = load ptr, ptr @stderr, align 8, !tbaa !6
  %13 = load ptr, ptr %3, align 8, !tbaa !16
  %14 = load i64, ptr %5, align 8, !tbaa !11
  %15 = getelementptr inbounds nuw i8, ptr %13, i64 %14
  %16 = load i8, ptr %15, align 1, !tbaa !15
  %17 = zext i8 %16 to i32
  %18 = call i32 (ptr, ptr, ...) @fprintf(ptr noundef %12, ptr noundef @.str.14, i32 noundef %17) #9
  br label %19

19:                                               ; preds = %11
  %20 = load i64, ptr %5, align 8, !tbaa !11
  %21 = add i64 %20, 1
  store i64 %21, ptr %5, align 8, !tbaa !11
  br label %6, !llvm.loop !21

22:                                               ; preds = %10
  ret void
}

; Function Attrs: mustprogress uwtable
define internal noundef zeroext i1 @_ZL10TestPBKDF2PKvmS0_mjPK9env_md_stmPKh(ptr noundef %0, i64 noundef %1, ptr noundef %2, i64 noundef %3, i32 noundef %4, ptr noundef %5, i64 noundef %6, ptr noundef %7) #2 {
  %9 = alloca i1, align 1
  %10 = alloca ptr, align 8
  %11 = alloca i64, align 8
  %12 = alloca ptr, align 8
  %13 = alloca i64, align 8
  %14 = alloca i32, align 4
  %15 = alloca ptr, align 8
  %16 = alloca i64, align 8
  %17 = alloca ptr, align 8
  %18 = alloca [64 x i8], align 16
  %19 = alloca i32, align 4
  store ptr %0, ptr %10, align 8, !tbaa !16
  store i64 %1, ptr %11, align 8, !tbaa !11
  store ptr %2, ptr %12, align 8, !tbaa !16
  store i64 %3, ptr %13, align 8, !tbaa !11
  store i32 %4, ptr %14, align 4, !tbaa !17
  store ptr %5, ptr %15, align 8, !tbaa !13
  store i64 %6, ptr %16, align 8, !tbaa !11
  store ptr %7, ptr %17, align 8, !tbaa !19
  call void @llvm.lifetime.start.p0(i64 64, ptr %18) #9
  %20 = load i64, ptr %16, align 8, !tbaa !11
  %21 = icmp ugt i64 %20, 64
  br i1 %21, label %22, label %25

22:                                               ; preds = %8
  %23 = load ptr, ptr @stderr, align 8, !tbaa !6
  %24 = call i32 (ptr, ptr, ...) @fprintf(ptr noundef %23, ptr noundef @.str.8) #9
  store i1 false, ptr %9, align 1
  store i32 1, ptr %19, align 4
  br label %60

25:                                               ; preds = %8
  %26 = load ptr, ptr %10, align 8, !tbaa !16
  %27 = load i64, ptr %11, align 8, !tbaa !11
  %28 = load ptr, ptr %12, align 8, !tbaa !16
  %29 = load i64, ptr %13, align 8, !tbaa !11
  %30 = load i32, ptr %14, align 4, !tbaa !17
  %31 = load ptr, ptr %15, align 8, !tbaa !13
  %32 = load i64, ptr %16, align 8, !tbaa !11
  %33 = getelementptr inbounds [64 x i8], ptr %18, i64 0, i64 0
  %34 = call i32 @PKCS5_PBKDF2_HMAC(ptr noundef %26, i64 noundef %27, ptr noundef %28, i64 noundef %29, i32 noundef %30, ptr noundef %31, i64 noundef %32, ptr noundef %33)
  %35 = icmp ne i32 %34, 0
  br i1 %35, label %40, label %36

36:                                               ; preds = %25
  %37 = load ptr, ptr @stderr, align 8, !tbaa !6
  %38 = call i32 (ptr, ptr, ...) @fprintf(ptr noundef %37, ptr noundef @.str.9) #9
  %39 = load ptr, ptr @stderr, align 8, !tbaa !6
  call void @ERR_print_errors_fp(ptr noundef %39)
  store i1 false, ptr %9, align 1
  store i32 1, ptr %19, align 4
  br label %60

40:                                               ; preds = %25
  %41 = getelementptr inbounds [64 x i8], ptr %18, i64 0, i64 0
  %42 = load ptr, ptr %17, align 8, !tbaa !19
  %43 = load i64, ptr %16, align 8, !tbaa !11
  %44 = call i32 @memcmp(ptr noundef %41, ptr noundef %42, i64 noundef %43) #10
  %45 = icmp ne i32 %44, 0
  br i1 %45, label %46, label %59

46:                                               ; preds = %40
  %47 = load ptr, ptr @stderr, align 8, !tbaa !6
  %48 = call i32 (ptr, ptr, ...) @fprintf(ptr noundef %47, ptr noundef @.str.10) #9
  %49 = load ptr, ptr @stderr, align 8, !tbaa !6
  %50 = call i32 (ptr, ptr, ...) @fprintf(ptr noundef %49, ptr noundef @.str.11) #9
  %51 = load ptr, ptr %17, align 8, !tbaa !19
  %52 = load i64, ptr %16, align 8, !tbaa !11
  call void @_ZL12PrintDataHexPKvm(ptr noundef %51, i64 noundef %52)
  %53 = load ptr, ptr @stderr, align 8, !tbaa !6
  %54 = call i32 (ptr, ptr, ...) @fprintf(ptr noundef %53, ptr noundef @.str.12) #9
  %55 = getelementptr inbounds [64 x i8], ptr %18, i64 0, i64 0
  %56 = load i64, ptr %16, align 8, !tbaa !11
  call void @_ZL12PrintDataHexPKvm(ptr noundef %55, i64 noundef %56)
  %57 = load ptr, ptr @stderr, align 8, !tbaa !6
  %58 = call i32 (ptr, ptr, ...) @fprintf(ptr noundef %57, ptr noundef @.str.13) #9
  store i1 false, ptr %9, align 1
  store i32 1, ptr %19, align 4
  br label %60

59:                                               ; preds = %40
  store i1 true, ptr %9, align 1
  store i32 1, ptr %19, align 4
  br label %60

60:                                               ; preds = %59, %46, %36, %22
  call void @llvm.lifetime.end.p0(i64 64, ptr %18) #9
  %61 = load i1, ptr %9, align 1
  ret i1 %61
}