; Function Attrs: mustprogress norecurse uwtable
define internal fastcc noundef zeroext i1 @_ZL10TestPBKDF2PKvmS0_mjPK9env_md_stmPKh(ptr noundef %0, i64 noundef range(i64 0, 25) %1, ptr noundef %2, i64 noundef range(i64 0, 37) %3, i32 noundef range(i32 1, 4097) %4, ptr noundef %5, i64 noundef range(i64 16, 65) %6, ptr noundef nonnull readonly captures(none) %7) unnamed_addr #0 {
  %9 = alloca [64 x i8], align 16
  call void @llvm.lifetime.start.p0(i64 64, ptr nonnull %9) #8
  %10 = call i32 @PKCS5_PBKDF2_HMAC(ptr noundef %0, i64 noundef %1, ptr noundef %2, i64 noundef %3, i32 noundef %4, ptr noundef %5, i64 noundef %6, ptr noundef nonnull %9)
  %.not = icmp eq i32 %10, 0
  br i1 %.not, label %11, label %15

11:                                               ; preds = %8
  %12 = load ptr, ptr @stderr, align 8, !tbaa !6
  %13 = call i64 @fwrite(ptr nonnull @.str.9, i64 33, i64 1, ptr %12) #7
  %14 = load ptr, ptr @stderr, align 8, !tbaa !6
  call void @ERR_print_errors_fp(ptr noundef %14)
  br label %38

15:                                               ; preds = %8
  %bcmp = call i32 @bcmp(ptr noundef nonnull dereferenceable(1) %9, ptr noundef nonnull dereferenceable(1) %7, i64 %6)
  %.not14 = icmp eq i32 %bcmp, 0
  br i1 %.not14, label %38, label %16

16:                                               ; preds = %15
  %17 = load ptr, ptr @stderr, align 8, !tbaa !6
  %18 = call i64 @fwrite(ptr nonnull @.str.10, i64 50, i64 1, ptr %17) #7
  %19 = load ptr, ptr @stderr, align 8, !tbaa !6
  %20 = call i64 @fwrite(ptr nonnull @.str.11, i64 14, i64 1, ptr %19) #7
  br label %21

21:                                               ; preds = %21, %16
  %.04.i = phi i64 [ 0, %16 ], [ %27, %21 ]
  %22 = load ptr, ptr @stderr, align 8, !tbaa !6
  %23 = getelementptr inbounds nuw i8, ptr %7, i64 %.04.i
  %24 = load i8, ptr %23, align 1, !tbaa !11
  %25 = zext i8 %24 to i32
  %26 = call i32 (ptr, ptr, ...) @fprintf(ptr noundef %22, ptr noundef nonnull @.str.14, i32 noundef %25) #9
  %27 = add nuw nsw i64 %.04.i, 1
  %exitcond.not.i = icmp eq i64 %27, %6
  br i1 %exitcond.not.i, label %_ZL12PrintDataHexPKvm.exit, label %21, !llvm.loop !12

_ZL12PrintDataHexPKvm.exit:                       ; preds = %21
  %28 = load ptr, ptr @stderr, align 8, !tbaa !6
  %29 = call i64 @fwrite(ptr nonnull @.str.12, i64 13, i64 1, ptr %28) #7
  br label %30

30:                                               ; preds = %30, %_ZL12PrintDataHexPKvm.exit
  %.04.i15 = phi i64 [ 0, %_ZL12PrintDataHexPKvm.exit ], [ %36, %30 ]
  %31 = load ptr, ptr @stderr, align 8, !tbaa !6
  %32 = getelementptr inbounds nuw i8, ptr %9, i64 %.04.i15
  %33 = load i8, ptr %32, align 1, !tbaa !11
  %34 = zext i8 %33 to i32
  %35 = call i32 (ptr, ptr, ...) @fprintf(ptr noundef %31, ptr noundef nonnull @.str.14, i32 noundef %34) #9
  %36 = add nuw nsw i64 %.04.i15, 1
  %exitcond.not.i16 = icmp eq i64 %36, %6
  br i1 %exitcond.not.i16, label %_ZL12PrintDataHexPKvm.exit17, label %30, !llvm.loop !12

_ZL12PrintDataHexPKvm.exit17:                     ; preds = %30
  %37 = load ptr, ptr @stderr, align 8, !tbaa !6
  %fputc = call i32 @fputc(i32 10, ptr %37)
  br label %38

38:                                               ; preds = %15, %_ZL12PrintDataHexPKvm.exit17, %11
  %.0 = phi i1 [ false, %_ZL12PrintDataHexPKvm.exit17 ], [ false, %11 ], [ true, %15 ]
  call void @llvm.lifetime.end.p0(i64 64, ptr nonnull %9) #8
  ret i1 %.0
}